; Function Attrs: nounwind uwtable
define dso_local i32 @onig_regset_search(ptr noundef readonly captures(none) %0, ptr noundef %1, ptr noundef %2, ptr noundef %3, ptr noundef %4, i32 noundef %5, i32 noundef %6, ptr noundef writeonly captures(none) %7) local_unnamed_addr #4 {
  %9 = getelementptr inbounds nuw i8, ptr %0, i64 8
  %10 = load i32, ptr %9, align 8, !tbaa !57
  %11 = sext i32 %10 to i64
  %12 = mul nsw i64 %11, 80
  %13 = tail call noalias ptr @malloc(i64 noundef %12) #28
  %14 = icmp eq ptr %13, null
  br i1 %14, label %44, label %15

15:                                               ; preds = %8
  %16 = getelementptr inbounds ptr, ptr %13, i64 %11
  %17 = icmp sgt i32 %10, 0
  br i1 %17, label %.lr.ph, label %._crit_edge

.lr.ph:                                           ; preds = %15
  %18 = load i32, ptr @MatchStackLimit, align 4, !tbaa !24
  %19 = load i64, ptr @RetryLimitInMatch, align 8, !tbaa !39
  %20 = load i64, ptr @RetryLimitInSearch, align 8, !tbaa !39
  %21 = load ptr, ptr @DefaultProgressCallout, align 8, !tbaa !20
  %22 = load ptr, ptr @DefaultRetractionCallout, align 8, !tbaa !20
  %wide.trip.count = zext nneg i32 %10 to i64
  br label %23

23:                                               ; preds = %.lr.ph, %23
  %indvars.iv = phi i64 [ 0, %.lr.ph ], [ %indvars.iv.next, %23 ]
  %24 = getelementptr inbounds nuw %struct.OnigMatchParamStruct, ptr %16, i64 %indvars.iv
  store i32 %18, ptr %24, align 8, !tbaa !4
  %25 = getelementptr inbounds nuw i8, ptr %24, i64 8
  store i64 %19, ptr %25, align 8, !tbaa !11
  %26 = getelementptr inbounds nuw i8, ptr %24, i64 16
  store i64 %20, ptr %26, align 8, !tbaa !12
  %27 = getelementptr inbounds nuw i8, ptr %24, i64 24
  store ptr null, ptr %27, align 8, !tbaa !15
  %28 = getelementptr inbounds nuw i8, ptr %24, i64 32
  store ptr %21, ptr %28, align 8, !tbaa !13
  %29 = getelementptr inbounds nuw i8, ptr %24, i64 40
  store ptr %22, ptr %29, align 8, !tbaa !14
  %30 = getelementptr inbounds nuw i8, ptr %24, i64 48
  store i32 0, ptr %30, align 8, !tbaa !40
  %31 = getelementptr inbounds nuw i8, ptr %24, i64 56
  store ptr null, ptr %31, align 8, !tbaa !41
  %32 = getelementptr inbounds nuw i8, ptr %24, i64 64
  store i32 0, ptr %32, align 8, !tbaa !42
  %33 = getelementptr inbounds nuw ptr, ptr %13, i64 %indvars.iv
  store ptr %24, ptr %33, align 8, !tbaa !65
  %indvars.iv.next = add nuw nsw i64 %indvars.iv, 1
  %exitcond.not = icmp eq i64 %indvars.iv.next, %wide.trip.count
  br i1 %exitcond.not, label %._crit_edge, label %23, !llvm.loop !182

._crit_edge:                                      ; preds = %23, %15
  %34 = tail call i32 @onig_regset_search_with_param(ptr noundef %0, ptr noundef %1, ptr noundef %2, ptr noundef %3, ptr noundef %4, i32 noundef %5, i32 noundef %6, ptr noundef nonnull %13, ptr noundef %7)
  %35 = load i32, ptr %9, align 8, !tbaa !57
  %36 = icmp sgt i32 %35, 0
  br i1 %36, label %.lr.ph34, label %._crit_edge35

.lr.ph34:                                         ; preds = %._crit_edge, %onig_free_match_param_content.exit
  %37 = phi i32 [ %41, %onig_free_match_param_content.exit ], [ %35, %._crit_edge ]
  %indvars.iv37 = phi i64 [ %indvars.iv.next38, %onig_free_match_param_content.exit ], [ 0, %._crit_edge ]
  %38 = getelementptr inbounds nuw %struct.OnigMatchParamStruct, ptr %16, i64 %indvars.iv37, i32 7
  %39 = load ptr, ptr %38, align 8, !tbaa !41
  %.not.i = icmp eq ptr %39, null
  br i1 %.not.i, label %onig_free_match_param_content.exit, label %40

40:                                               ; preds = %.lr.ph34
  tail call void @free(ptr noundef nonnull %39) #30
  store ptr null, ptr %38, align 8, !tbaa !41
  %.pre = load i32, ptr %9, align 8, !tbaa !57
  br label %onig_free_match_param_content.exit

onig_free_match_param_content.exit:               ; preds = %.lr.ph34, %40
  %41 = phi i32 [ %37, %.lr.ph34 ], [ %.pre, %40 ]
  %indvars.iv.next38 = add nuw nsw i64 %indvars.iv37, 1
  %42 = sext i32 %41 to i64
  %43 = icmp slt i64 %indvars.iv.next38, %42
  br i1 %43, label %.lr.ph34, label %._crit_edge35, !llvm.loop !183

._crit_edge35:                                    ; preds = %onig_free_match_param_content.exit, %._crit_edge
  tail call void @free(ptr noundef nonnull %13) #30
  br label %44

44:                                               ; preds = %8, %._crit_edge35
  %.0 = phi i32 [ %34, %._crit_edge35 ], [ -5, %8 ]
  ret i32 %.0
}